libcef.so:calloc
libcef.so:cef_add_cross_origin_whitelist_entry
libcef.so:cef_api_hash
libcef.so:cef_base64decode
libcef.so:cef_base64encode
libcef.so:cef_begin_tracing
libcef.so:cef_binary_value_create
libcef.so:cef_browser_host_create_browser
libcef.so:cef_browser_host_create_browser_sync
libcef.so:cef_browser_view_create
libcef.so:cef_browser_view_get_for_browser
libcef.so:cef_clear_cross_origin_whitelist
libcef.so:cef_clear_scheme_handler_factories
libcef.so:cef_command_line_create
libcef.so:cef_command_line_get_global
libcef.so:cef_cookie_manager_create_manager
libcef.so:cef_cookie_manager_get_global_manager
libcef.so:cef_crash_reporting_enabled
libcef.so:cef_create_context_shared
libcef.so:cef_create_directory
libcef.so:cef_create_new_temp_directory
libcef.so:cef_create_temp_directory_in_directory
libcef.so:cef_create_url
libcef.so:cef_currently_on
libcef.so:cef_delete_file
libcef.so:cef_dictionary_value_create
libcef.so:cef_directory_exists
libcef.so:cef_display_get_alls
libcef.so:cef_display_get_count
libcef.so:cef_display_get_matching_bounds
libcef.so:cef_display_get_nearest_point
libcef.so:cef_display_get_primary
libcef.so:cef_do_message_loop_work
libcef.so:cef_drag_data_create
libcef.so:cef_enable_highdpi_support
libcef.so:cef_end_tracing
libcef.so:cef_execute_java_script_with_user_gesture_for_tests
libcef.so:cef_execute_process
libcef.so:cef_format_url_for_security_display
libcef.so:cef_get_current_platform_thread_handle
libcef.so:cef_get_current_platform_thread_id
libcef.so:cef_get_extensions_for_mime_type
libcef.so:cef_get_geolocation
libcef.so:cef_get_mime_type
libcef.so:cef_get_min_log_level
libcef.so:cef_get_path
libcef.so:cef_get_temp_directory
libcef.so:cef_get_vlog_level
libcef.so:cef_get_xdisplay
libcef.so:cef_image_create
libcef.so:cef_initialize
libcef.so:cef_is_cert_status_error
libcef.so:cef_is_cert_status_minor_error
libcef.so:cef_is_web_plugin_unstable
libcef.so:cef_label_button_create
libcef.so:cef_launch_process
libcef.so:cef_list_value_create
libcef.so:cef_load_crlsets_file
libcef.so:cef_log
libcef.so:cef_menu_button_create
libcef.so:cef_menu_model_create
libcef.so:cef_now_from_system_trace_time
libcef.so:cef_override_path
libcef.so:cef_panel_create
libcef.so:cef_parse_json
libcef.so:cef_parse_jsonand_return_error
libcef.so:cef_parse_url
libcef.so:cef_post_data_create
libcef.so:cef_post_data_element_create
libcef.so:cef_post_delayed_task
libcef.so:cef_post_task
libcef.so:cef_print_settings_create
libcef.so:cef_process_message_create
libcef.so:cef_quit_message_loop
libcef.so:cef_refresh_web_plugins
libcef.so:cef_register_extension
libcef.so:cef_register_scheme_handler_factory
libcef.so:cef_register_web_plugin_crash
libcef.so:cef_register_widevine_cdm
libcef.so:cef_remove_cross_origin_whitelist_entry
libcef.so:cef_request_context_create_context
libcef.so:cef_request_context_get_global_context
libcef.so:cef_request_create
libcef.so:cef_resource_bundle_get_global
libcef.so:cef_response_create
libcef.so:cef_run_message_loop
libcef.so:cef_scroll_view_create
libcef.so:cef_set_crash_key_value
libcef.so:cef_set_osmodal_loop
libcef.so:cef_shutdown
libcef.so:cef_stream_reader_create_for_data
libcef.so:cef_stream_reader_create_for_file
libcef.so:cef_stream_reader_create_for_handler
libcef.so:cef_stream_writer_create_for_file
libcef.so:cef_stream_writer_create_for_handler
libcef.so:cef_string_ascii_to_utf16
libcef.so:cef_string_ascii_to_wide
libcef.so:cef_string_list_alloc
libcef.so:cef_string_list_append
libcef.so:cef_string_list_clear
libcef.so:cef_string_list_copy
libcef.so:cef_string_list_free
libcef.so:cef_string_list_size
libcef.so:cef_string_list_value
libcef.so:cef_string_map_alloc
libcef.so:cef_string_map_append
libcef.so:cef_string_map_clear
libcef.so:cef_string_map_find
libcef.so:cef_string_map_free
libcef.so:cef_string_map_key
libcef.so:cef_string_map_size
libcef.so:cef_string_map_value
libcef.so:cef_string_multimap_alloc
libcef.so:cef_string_multimap_append
libcef.so:cef_string_multimap_clear
libcef.so:cef_string_multimap_enumerate
libcef.so:cef_string_multimap_find_count
libcef.so:cef_string_multimap_free
libcef.so:cef_string_multimap_key
libcef.so:cef_string_multimap_size
libcef.so:cef_string_multimap_value
libcef.so:cef_string_userfree_utf16_alloc
libcef.so:cef_string_userfree_utf16_free
libcef.so:cef_string_userfree_utf8_alloc
libcef.so:cef_string_userfree_utf8_free
libcef.so:cef_string_userfree_wide_alloc
libcef.so:cef_string_userfree_wide_free
libcef.so:cef_string_utf16_clear
libcef.so:cef_string_utf16_cmp
libcef.so:cef_string_utf16_set
libcef.so:cef_string_utf16_to_lower
libcef.so:cef_string_utf16_to_upper
libcef.so:cef_string_utf16_to_utf8
libcef.so:cef_string_utf16_to_wide
libcef.so:cef_string_utf8_clear
libcef.so:cef_string_utf8_cmp
libcef.so:cef_string_utf8_set
libcef.so:cef_string_utf8_to_utf16
libcef.so:cef_string_utf8_to_wide
libcef.so:cef_string_wide_clear
libcef.so:cef_string_wide_cmp
libcef.so:cef_string_wide_set
libcef.so:cef_string_wide_to_utf16
libcef.so:cef_string_wide_to_utf8
libcef.so:cef_task_runner_get_for_current_thread
libcef.so:cef_task_runner_get_for_thread
libcef.so:cef_textfield_create
libcef.so:cef_thread_create
libcef.so:cef_time_delta
libcef.so:cef_time_from_doublet
libcef.so:cef_time_from_timet
libcef.so:cef_time_now
libcef.so:cef_time_to_doublet
libcef.so:cef_time_to_timet
libcef.so:cef_trace_counter
libcef.so:cef_trace_counter_id
libcef.so:cef_trace_event_async_begin
libcef.so:cef_trace_event_async_end
libcef.so:cef_trace_event_async_step_into
libcef.so:cef_trace_event_async_step_past
libcef.so:cef_trace_event_begin
libcef.so:cef_trace_event_end
libcef.so:cef_trace_event_instant
libcef.so:cef_translator_test_create
libcef.so:cef_translator_test_ref_ptr_library_child_child_create
libcef.so:cef_translator_test_ref_ptr_library_child_create
libcef.so:cef_translator_test_ref_ptr_library_create
libcef.so:cef_translator_test_scoped_library_child_child_create
libcef.so:cef_translator_test_scoped_library_child_create
libcef.so:cef_translator_test_scoped_library_create
libcef.so:cef_unregister_internal_web_plugin
libcef.so:cef_uridecode
libcef.so:cef_uriencode
libcef.so:cef_urlrequest_create
libcef.so:cef_v8context_get_current_context
libcef.so:cef_v8context_get_entered_context
libcef.so:cef_v8context_in_context
libcef.so:cef_v8stack_trace_get_current
libcef.so:cef_v8value_create_array
libcef.so:cef_v8value_create_bool
libcef.so:cef_v8value_create_date
libcef.so:cef_v8value_create_double
libcef.so:cef_v8value_create_function
libcef.so:cef_v8value_create_int
libcef.so:cef_v8value_create_null
libcef.so:cef_v8value_create_object
libcef.so:cef_v8value_create_string
libcef.so:cef_v8value_create_uint
libcef.so:cef_v8value_create_undefined
libcef.so:cef_value_create
libcef.so:cef_version_info
libcef.so:cef_visit_web_plugin_info
libcef.so:cef_waitable_event_create
libcef.so:cef_window_create_top_level
libcef.so:cef_write_json
libcef.so:cef_xml_reader_create
libcef.so:cef_zip_directory
libcef.so:cef_zip_reader_create
libcef.so:free
libcef.so:localtime
libcef.so:localtime_r
libcef.so:malloc
libcef.so:posix_memalign
libcef.so:realloc
libqcef.so.1:_Z11QCefBindAppP16QCoreApplication
libqcef.so.1:_Z12QCefShutdownv
libqcef.so.1:_Z13QCefGetCookieRK7QStringS1_
libqcef.so.1:_Z13QCefSetCookieRK7QStringS1_S1_
libqcef.so.1:_Z13QCefStopTimerv
libqcef.so.1:_Z14QCefGetCookiesRK7QString
libqcef.so.1:_Z14QCefMoveCookieRK7QStringS1_S1_
libqcef.so.1:_Z16QCefFlushCookiesv
libqcef.so.1:_Z16QCefRemoveCookieRK7QStringS1_
libqcef.so.1:_Z17IsX86Architecturev
libqcef.so.1:_Z8QCefInitiPPcRK18QCefGlobalSettings
libqcef.so.1:_ZN11QCefWebPage10urlChangedERK4QUrl
libqcef.so.1:_ZN11QCefWebPage11iconChangedERK5QIcon
libqcef.so.1:_ZN11QCefWebPage11loadStartedEv
libqcef.so.1:_ZN11QCefWebPage11qt_metacallEN11QMetaObject4CallEiPPv
libqcef.so.1:_ZN11QCefWebPage11qt_metacastEPKc
libqcef.so.1:_ZN11QCefWebPage11updateTitleERK7QString
libqcef.so.1:_ZN11QCefWebPage12loadFinishedEb
libqcef.so.1:_ZN11QCefWebPage12titleChangedERK7QString
libqcef.so.1:_ZN11QCefWebPage12windowClosedEv
libqcef.so.1:_ZN11QCefWebPage13runJavaScriptERK7QString
libqcef.so.1:_ZN11QCefWebPage13runJavaScriptERK7QStringS2_
libqcef.so.1:_ZN11QCefWebPage13setZoomFactorEd
libqcef.so.1:_ZN11QCefWebPage13updateFaviconERK4QUrlRK5QIcon
libqcef.so.1:_ZN11QCefWebPage14iconUrlChangedERK4QUrl
libqcef.so.1:_ZN11QCefWebPage15resetZoomFactorEv
libqcef.so.1:_ZN11QCefWebPage16handleWebMessageERK11QJsonObject
libqcef.so.1:_ZN11QCefWebPage16setEventDelegateEP24QCefBrowserEventDelegate
libqcef.so.1:_ZN11QCefWebPage17reloadIgnoreCacheEv
libqcef.so.1:_ZN11QCefWebPage19fullscreenRequestedEb
libqcef.so.1:_ZN11QCefWebPage19loadingStateChangedEbbb
libqcef.so.1:_ZN11QCefWebPage19setPageErrorContentERK7QString
libqcef.so.1:_ZN11QCefWebPage20notificationReceivedERK7QStringS2_
libqcef.so.1:_ZN11QCefWebPage20renderContextCreatedEv
libqcef.so.1:_ZN11QCefWebPage21updateBrowserGeometryEv
libqcef.so.1:_ZN11QCefWebPage23connectTransportChannelEv
libqcef.so.1:_ZN11QCefWebPage26disconnectTransportChannelEv
libqcef.so.1:_ZN11QCefWebPage3cutEv
libqcef.so.1:_ZN11QCefWebPage4backEv
libqcef.so.1:_ZN11QCefWebPage4copyEv
libqcef.so.1:_ZN11QCefWebPage4loadERK4QUrl
libqcef.so.1:_ZN11QCefWebPage4redoEv
libqcef.so.1:_ZN11QCefWebPage4stopEv
libqcef.so.1:_ZN11QCefWebPage4undoEv
libqcef.so.1:_ZN11QCefWebPage5pasteEv
libqcef.so.1:_ZN11QCefWebPage6reloadEv
libqcef.so.1:_ZN11QCefWebPage6setUrlERK4QUrl
libqcef.so.1:_ZN11QCefWebPage6zoomInEv
libqcef.so.1:_ZN11QCefWebPage7forwardEv
libqcef.so.1:_ZN11QCefWebPage7setHtmlERK7QStringRK4QUrl
libqcef.so.1:_ZN11QCefWebPage7zoomOutEv
libqcef.so.1:_ZN11QCefWebPage8doDeleteEv
libqcef.so.1:_ZN11QCefWebPage9selectAllEv
libqcef.so.1:_ZN11QCefWebPage9updateUrlERK4QUrl
libqcef.so.1:_ZN11QCefWebPageC1EP7QObject
libqcef.so.1:_ZN11QCefWebPageC2EP7QObject
libqcef.so.1:_ZN11QCefWebPageD0Ev
libqcef.so.1:_ZN11QCefWebPageD1Ev
libqcef.so.1:_ZN11QCefWebPageD2Ev
libqcef.so.1:_ZN11QCefWebView11eventFilterEP7QObjectP6QEvent
libqcef.so.1:_ZN11QCefWebView11qt_metacallEN11QMetaObject4CallEiPPv
libqcef.so.1:_ZN11QCefWebView11qt_metacastEPKc
libqcef.so.1:_ZN11QCefWebView4loadERK4QUrl
libqcef.so.1:_ZN11QCefWebView6setUrlERK4QUrl
libqcef.so.1:_ZN11QCefWebViewC1EP7QWidget
libqcef.so.1:_ZN11QCefWebViewC2EP7QWidget
libqcef.so.1:_ZN11QCefWebViewD0Ev
libqcef.so.1:_ZN11QCefWebViewD1Ev
libqcef.so.1:_ZN11QCefWebViewD2Ev
libqcef.so.1:_ZN15QCefContextMenu12addSeparatorEv
libqcef.so.1:_ZN15QCefContextMenu5clearEv
libqcef.so.1:_ZN15QCefContextMenu7addItemEiRK7QStringbSt8functionIFvP11QCefWebPageEE
libqcef.so.1:_ZN15QCefContextMenuC1Ev
libqcef.so.1:_ZN15QCefContextMenuC2Ev
libqcef.so.1:_ZN15QCefWebSettings12setDatabasesENS_5StateE
libqcef.so.1:_ZN15QCefWebSettings13setJavascriptENS_5StateE
libqcef.so.1:_ZN15QCefWebSettings14setRemoteFontsENS_5StateE
libqcef.so.1:_ZN15QCefWebSettings14setWebSecurityENS_5StateE
libqcef.so.1:_ZN15QCefWebSettings15setImageLoadingENS_5StateE
libqcef.so.1:_ZN15QCefWebSettings15setLocalStorageENS_5StateE
libqcef.so.1:_ZN15QCefWebSettings18setDefaultEncodingERK7QString
libqcef.so.1:_ZN15QCefWebSettings18setDefaultFontSizeEi
libqcef.so.1:_ZN15QCefWebSettings18setFixedFontFamilyERK7QString
libqcef.so.1:_ZN15QCefWebSettings18setMinimumFontSizeEi
libqcef.so.1:_ZN15QCefWebSettings18setSerifFontFamilyERK7QString
libqcef.so.1:_ZN15QCefWebSettings19setApplicationCacheENS_5StateE
libqcef.so.1:_ZN15QCefWebSettings21setAcceptLanguageListERK7QString
libqcef.so.1:_ZN15QCefWebSettings21setJavascriptDomPasteENS_5StateE
libqcef.so.1:_ZN15QCefWebSettings21setStandardFontFamilyERK7QString
libqcef.so.1:_ZN15QCefWebSettings22setSansSerifFontFamilyERK7QString
libqcef.so.1:_ZN15QCefWebSettings23setDefaultFixedFontSizeEi
libqcef.so.1:_ZN15QCefWebSettings24addCrossOriginWhiteEntryERK4QUrlS2_b
libqcef.so.1:_ZN15QCefWebSettings24setJavascriptCloseWindowENS_5StateE
libqcef.so.1:_ZN15QCefWebSettings25setFileAccessFromFileUrlsENS_5StateE
libqcef.so.1:_ZN15QCefWebSettings25setMinimumLogicalFontSizeEi
libqcef.so.1:_ZN15QCefWebSettings28setJavascriptAccessClipboardENS_5StateE
libqcef.so.1:_ZN15QCefWebSettings31sestUniversalAccessFromFileUrlsENS_5StateE
libqcef.so.1:_ZN15QCefWebSettings8setWebGLENS_5StateE
libqcef.so.1:_ZN15QCefWebSettings9setPluginENS_5StateE
libqcef.so.1:_ZN15QCefWebSettingsC1Ev
libqcef.so.1:_ZN15QCefWebSettingsC2Ev
libqcef.so.1:_ZN15QCefWebSettingsD1Ev
libqcef.so.1:_ZN15QCefWebSettingsD2Ev
libqcef.so.1:_ZN18QCefGlobalSettings10setLogFileERK7QString
libqcef.so.1:_ZN18QCefGlobalSettings10setNoProxyEv
libqcef.so.1:_ZN18QCefGlobalSettings12setCachePathERK7QString
libqcef.so.1:_ZN18QCefGlobalSettings12setNoSandboxEb
libqcef.so.1:_ZN18QCefGlobalSettings12setUserAgentERK7QString
libqcef.so.1:_ZN18QCefGlobalSettings14setLogSeverityENS_11LogSeverityE
libqcef.so.1:_ZN18QCefGlobalSettings14setPepperFlashEb
libqcef.so.1:_ZN18QCefGlobalSettings14setProxyPacUrlERK4QUrl
libqcef.so.1:_ZN18QCefGlobalSettings14setProxyServerERK7QString
libqcef.so.1:_ZN18QCefGlobalSettings14setRemoteDebugEb
libqcef.so.1:_ZN18QCefGlobalSettings15addCustomSchemeERK4QUrl
libqcef.so.1:_ZN18QCefGlobalSettings15setOverridePathERK7QString
libqcef.so.1:_ZN18QCefGlobalSettings15setUserDataPathERK7QString
libqcef.so.1:_ZN18QCefGlobalSettings16setSingleProcessEb
libqcef.so.1:_ZN18QCefGlobalSettings18registerSyncMethodERK7QStringPFS0_S2_E
libqcef.so.1:_ZN18QCefGlobalSettings18registerUserScriptERK7QStringRK4QUrl
libqcef.so.1:_ZN18QCefGlobalSettings18setAutoDetectProxyEv
libqcef.so.1:_ZN18QCefGlobalSettings18setRemoteDebugPortEi
libqcef.so.1:_ZN18QCefGlobalSettings20addCommandLineSwitchERK7QStringS2_
libqcef.so.1:_ZN18QCefGlobalSettings21setAcceptLanguageListERK7QString
libqcef.so.1:_ZN18QCefGlobalSettings22setCustomSchemeHandlerEPF7QStringRK4QUrlE
libqcef.so.1:_ZN18QCefGlobalSettings25setDisableCommandLineArgsEb
libqcef.so.1:_ZN18QCefGlobalSettings25setPersistSessionCcookiesEb
libqcef.so.1:_ZN18QCefGlobalSettings25setPersistUserPreferencesEb
libqcef.so.1:_ZN18QCefGlobalSettings27setIgnoresCertificateErrorsEb
libqcef.so.1:_ZN18QCefGlobalSettingsC1Ev
libqcef.so.1:_ZN18QCefGlobalSettingsC2Ev
libqcef.so.1:_ZN18QCefGlobalSettingsD1Ev
libqcef.so.1:_ZN18QCefGlobalSettingsD2Ev
libqcef.so.1:_ZN21QCefContextMenuParamsC1Ev
libqcef.so.1:_ZN21QCefContextMenuParamsC2Ev
libqcef.so.1:_ZN21QCefContextMenuParamsD1Ev
libqcef.so.1:_ZN21QCefContextMenuParamsD2Ev
libqcef.so.1:_ZN23QCefNotificationService11qt_metacallEN11QMetaObject4CallEiPPv
libqcef.so.1:_ZN23QCefNotificationService11qt_metacastEPKc
libqcef.so.1:_ZN23QCefNotificationService6notifyERK7QStringS2_RK5QIcon
libqcef.so.1:_ZN23QCefNotificationServiceC1EP7QObject
libqcef.so.1:_ZN23QCefNotificationServiceC2EP7QObject
libqcef.so.1:_ZNK11QCefWebPage10metaObjectEv
libqcef.so.1:_ZNK11QCefWebPage10webChannelEv
libqcef.so.1:_ZNK11QCefWebPage10zoomFactorEv
libqcef.so.1:_ZNK11QCefWebPage11toPlainTextESt8functionIFvRK7QStringEE
libqcef.so.1:_ZNK11QCefWebPage12canGoForwardEv
libqcef.so.1:_ZNK11QCefWebPage12getSSLStatusEv
libqcef.so.1:_ZNK11QCefWebPage16getEventDelegateEv
libqcef.so.1:_ZNK11QCefWebPage16pageErrorContentEv
libqcef.so.1:_ZNK11QCefWebPage3urlEv
libqcef.so.1:_ZNK11QCefWebPage4iconEv
libqcef.so.1:_ZNK11QCefWebPage4viewEv
libqcef.so.1:_ZNK11QCefWebPage5titleEv
libqcef.so.1:_ZNK11QCefWebPage6toHtmlESt8functionIFvRK7QStringEE
libqcef.so.1:_ZNK11QCefWebPage7iconUrlEv
libqcef.so.1:_ZNK11QCefWebPage8settingsEv
libqcef.so.1:_ZNK11QCefWebPage9canGoBackEv
libqcef.so.1:_ZNK11QCefWebPage9isLoadingEv
libqcef.so.1:_ZNK11QCefWebView10metaObjectEv
libqcef.so.1:_ZNK11QCefWebView3urlEv
libqcef.so.1:_ZNK11QCefWebView4pageEv
libqcef.so.1:_ZNK15QCefContextMenu5itemsEv
libqcef.so.1:_ZNK15QCefContextMenu9callbacksEv
libqcef.so.1:_ZNK15QCefWebSettings10javascriptEv
libqcef.so.1:_ZNK15QCefWebSettings11remoteFontsEv
libqcef.so.1:_ZNK15QCefWebSettings11webSecurityEv
libqcef.so.1:_ZNK15QCefWebSettings12imageLoadingEv
libqcef.so.1:_ZNK15QCefWebSettings12localStorageEv
libqcef.so.1:_ZNK15QCefWebSettings14textAreaResizeEv
libqcef.so.1:_ZNK15QCefWebSettings15defaultEncodingEv
libqcef.so.1:_ZNK15QCefWebSettings15defaultFontSizeEv
libqcef.so.1:_ZNK15QCefWebSettings15fixedFontFamilyEv
libqcef.so.1:_ZNK15QCefWebSettings15minimumFontSizeEv
libqcef.so.1:_ZNK15QCefWebSettings15serifFontFamilyEv
libqcef.so.1:_ZNK15QCefWebSettings16applicationCacheEv
libqcef.so.1:_ZNK15QCefWebSettings17cursiveFontFamilyEv
libqcef.so.1:_ZNK15QCefWebSettings17fantasyFontFamilyEv
libqcef.so.1:_ZNK15QCefWebSettings17setTextAreaResizeENS_5StateE
libqcef.so.1:_ZNK15QCefWebSettings18acceptLanguageListEv
libqcef.so.1:_ZNK15QCefWebSettings18standardFontFamilyEv
libqcef.so.1:_ZNK15QCefWebSettings19javascriptDomPasterEv
libqcef.so.1:_ZNK15QCefWebSettings19sansSerifFontFamilyEv
libqcef.so.1:_ZNK15QCefWebSettings20crossOriginWhiteListEv
libqcef.so.1:_ZNK15QCefWebSettings20defaultFixedFontSizeEv
libqcef.so.1:_ZNK15QCefWebSettings20setCursiveFontFamilyERK7QString
libqcef.so.1:_ZNK15QCefWebSettings20setFantasyFontFamilyERK7QString
libqcef.so.1:_ZNK15QCefWebSettings21javascriptCloseWindowEv
libqcef.so.1:_ZNK15QCefWebSettings22fileAccessFromFileUrlsEv
libqcef.so.1:_ZNK15QCefWebSettings22minimumLogicalFontSizeEv
libqcef.so.1:_ZNK15QCefWebSettings25javascriptAccessClipboardEv
libqcef.so.1:_ZNK15QCefWebSettings27universalAccessFromFileUrlsEv
libqcef.so.1:_ZNK15QCefWebSettings5webGLEv
libqcef.so.1:_ZNK15QCefWebSettings6pluginEv
libqcef.so.1:_ZNK15QCefWebSettings9databasesEv
libqcef.so.1:_ZNK18QCefGlobalSettings11logSeverityEv
libqcef.so.1:_ZNK18QCefGlobalSettings11pepperFlashEv
libqcef.so.1:_ZNK18QCefGlobalSettings11remoteDebugEv
libqcef.so.1:_ZNK18QCefGlobalSettings12userDataPathEv
libqcef.so.1:_ZNK18QCefGlobalSettings13customSchemesEv
libqcef.so.1:_ZNK18QCefGlobalSettings13singleProcessEv
libqcef.so.1:_ZNK18QCefGlobalSettings14getSyncMethodsEv
libqcef.so.1:_ZNK18QCefGlobalSettings14getUserScriptsEv
libqcef.so.1:_ZNK18QCefGlobalSettings15getOverridePathEv
libqcef.so.1:_ZNK18QCefGlobalSettings15remoteDebugPortEv
libqcef.so.1:_ZNK18QCefGlobalSettings18acceptLanguageListEv
libqcef.so.1:_ZNK18QCefGlobalSettings18getPepperFlashPathEv
libqcef.so.1:_ZNK18QCefGlobalSettings21getPepperFlashVersionEv
libqcef.so.1:_ZNK18QCefGlobalSettings21persistSessionCookiesEv
libqcef.so.1:_ZNK18QCefGlobalSettings22disableCommandLineArgsEv
libqcef.so.1:_ZNK18QCefGlobalSettings22getCommandLineSwitchesEv
libqcef.so.1:_ZNK18QCefGlobalSettings22getCustomSchemeHandlerEv
libqcef.so.1:_ZNK18QCefGlobalSettings22persistUserPreferencesEv
libqcef.so.1:_ZNK18QCefGlobalSettings24ignoresCertificateErrorsEv
libqcef.so.1:_ZNK18QCefGlobalSettings7logFileEv
libqcef.so.1:_ZNK18QCefGlobalSettings9cachePathEv
libqcef.so.1:_ZNK18QCefGlobalSettings9noSandboxEv
libqcef.so.1:_ZNK18QCefGlobalSettings9proxyInfoEv
libqcef.so.1:_ZNK18QCefGlobalSettings9proxyTypeEv
libqcef.so.1:_ZNK18QCefGlobalSettings9userAgentEv
libqcef.so.1:_ZNK21QCefContextMenuParams10getLinkUrlEv
libqcef.so.1:_ZNK21QCefContextMenuParams10getPageUrlEv
libqcef.so.1:_ZNK21QCefContextMenuParams10isEditableEv
libqcef.so.1:_ZNK21QCefContextMenuParams11getFrameUrlEv
libqcef.so.1:_ZNK21QCefContextMenuParams12getMediaTypeEv
libqcef.so.1:_ZNK21QCefContextMenuParams12getSourceUrlEv
libqcef.so.1:_ZNK21QCefContextMenuParams12getTitleTextEv
libqcef.so.1:_ZNK21QCefContextMenuParams12getTypeFlagsEv
libqcef.so.1:_ZNK21QCefContextMenuParams15getFrameCharsetEv
libqcef.so.1:_ZNK21QCefContextMenuParams16getSelectionTextEv
libqcef.so.1:_ZNK21QCefContextMenuParams16hasImageContentsEv
libqcef.so.1:_ZNK21QCefContextMenuParams17getEditStateFlagsEv
libqcef.so.1:_ZNK21QCefContextMenuParams18getMediaStateFlagsEv
libqcef.so.1:_ZNK21QCefContextMenuParams20getUnfilteredLinkUrlEv
libqcef.so.1:_ZNK21QCefContextMenuParams9getXCoordEv
libqcef.so.1:_ZNK21QCefContextMenuParams9getYCoordEv
libqcef.so.1:_ZNK23QCefNotificationService10metaObjectEv
libqcef.so.1:_ZThn16_N11QCefWebViewD0Ev
libqcef.so.1:_ZThn16_N11QCefWebViewD1Ev
